target datalayout = "e-m:e-p270:32:32-p271:32:32-p272:64:64-i64:64-i128:128-f80:128-n8:16:32:64-S128"
target triple = "x86_64-pc-linux-gnu"

; Function Attrs: mustprogress uwtable
define void @_Z11do_fit_ndimiiPfPA3_KfPA3_f(i32 noundef %0, i32 noundef %1, ptr noundef %2, ptr noundef %3, ptr noundef %4) #0 {
  %6 = alloca i32, align 4
  %7 = alloca i32, align 4
  %8 = alloca ptr, align 8
  %9 = alloca ptr, align 8
  %10 = alloca ptr, align 8
  %11 = alloca i32, align 4
  %12 = alloca i32, align 4
  %13 = alloca i32, align 4
  %14 = alloca i32, align 4
  %15 = alloca [3 x [3 x float]], align 16
  %16 = alloca [3 x float], align 4
  store i32 %0, ptr %6, align 4
  store i32 %1, ptr %7, align 4
  store ptr %2, ptr %8, align 8
  store ptr %3, ptr %9, align 8
  store ptr %4, ptr %10, align 8
  %17 = load i32, ptr %6, align 4
  %18 = load i32, ptr %7, align 4
  %19 = load ptr, ptr %8, align 8
  %20 = load ptr, ptr %9, align 8
  %21 = load ptr, ptr %10, align 8
  %22 = getelementptr inbounds [3 x [3 x float]], ptr %15, i64 0, i64 0
  call void @_Z10calc_fit_RiiPKfPA3_S_PA3_fS4_(i32 noundef %17, i32 noundef %18, ptr noundef %19, ptr noundef %20, ptr noundef %21, ptr noundef %22)
  store i32 0, ptr %11, align 4
  br label %23

23:                                               ; preds = %90, %5
  %24 = load i32, ptr %11, align 4
  %25 = load i32, ptr %7, align 4
  %26 = icmp slt i32 %24, %25
  br i1 %26, label %27, label %93

27:                                               ; preds = %23
  store i32 0, ptr %12, align 4
  br label %28

28:                                               ; preds = %43, %27
  %29 = load i32, ptr %12, align 4
  %30 = icmp slt i32 %29, 3
  br i1 %30, label %31, label %46

31:                                               ; preds = %28
  %32 = load ptr, ptr %10, align 8
  %33 = load i32, ptr %11, align 4
  %34 = sext i32 %33 to i64
  %35 = getelementptr inbounds [3 x float], ptr %32, i64 %34
  %36 = load i32, ptr %12, align 4
  %37 = sext i32 %36 to i64
  %38 = getelementptr inbounds [3 x float], ptr %35, i64 0, i64 %37
  %39 = load float, ptr %38, align 4
  %40 = load i32, ptr %12, align 4
  %41 = sext i32 %40 to i64
  %42 = getelementptr inbounds [3 x float], ptr %16, i64 0, i64 %41
  store float %39, ptr %42, align 4
  br label %43

43:                                               ; preds = %31
  %44 = load i32, ptr %12, align 4
  %45 = add nsw i32 %44, 1
  store i32 %45, ptr %12, align 4
  br label %28, !llvm.loop !24

46:                                               ; preds = %28
  store i32 0, ptr %13, align 4
  br label %47

47:                                               ; preds = %86, %46
  %48 = load i32, ptr %13, align 4
  %49 = icmp slt i32 %48, 3
  br i1 %49, label %50, label %89

50:                                               ; preds = %47
  %51 = load ptr, ptr %10, align 8
  %52 = load i32, ptr %11, align 4
  %53 = sext i32 %52 to i64
  %54 = getelementptr inbounds [3 x float], ptr %51, i64 %53
  %55 = load i32, ptr %13, align 4
  %56 = sext i32 %55 to i64
  %57 = getelementptr inbounds [3 x float], ptr %54, i64 0, i64 %56
  store float 0.000000e+00, ptr %57, align 4
  store i32 0, ptr %14, align 4
  br label %58

58:                                               ; preds = %82, %50
  %59 = load i32, ptr %14, align 4
  %60 = icmp slt i32 %59, 3
  br i1 %60, label %61, label %85

61:                                               ; preds = %58
  %62 = load i32, ptr %13, align 4
  %63 = sext i32 %62 to i64
  %64 = getelementptr inbounds [3 x [3 x float]], ptr %15, i64 0, i64 %63
  %65 = load i32, ptr %14, align 4
  %66 = sext i32 %65 to i64
  %67 = getelementptr inbounds [3 x float], ptr %64, i64 0, i64 %66
  %68 = load float, ptr %67, align 4
  %69 = load i32, ptr %14, align 4
  %70 = sext i32 %69 to i64
  %71 = getelementptr inbounds [3 x float], ptr %16, i64 0, i64 %70
  %72 = load float, ptr %71, align 4
  %73 = load ptr, ptr %10, align 8
  %74 = load i32, ptr %11, align 4
  %75 = sext i32 %74 to i64
  %76 = getelementptr inbounds [3 x float], ptr %73, i64 %75
  %77 = load i32, ptr %13, align 4
  %78 = sext i32 %77 to i64
  %79 = getelementptr inbounds [3 x float], ptr %76, i64 0, i64 %78
  %80 = load float, ptr %79, align 4
  %81 = call float @llvm.fmuladd.f32(float %68, float %72, float %80)
  store float %81, ptr %79, align 4
  br label %82

82:                                               ; preds = %61
  %83 = load i32, ptr %14, align 4
  %84 = add nsw i32 %83, 1
  store i32 %84, ptr %14, align 4
  br label %58, !llvm.loop !25

85:                                               ; preds = %58
  br label %86

86:                                               ; preds = %85
  %87 = load i32, ptr %13, align 4
  %88 = add nsw i32 %87, 1
  store i32 %88, ptr %13, align 4
  br label %47, !llvm.loop !26

89:                                               ; preds = %47
  br label %90

90:                                               ; preds = %89
  %91 = load i32, ptr %11, align 4
  %92 = add nsw i32 %91, 1
  store i32 %92, ptr %11, align 4
  br label %23, !llvm.loop !27

93:                                               ; preds = %23
  ret void
}