; Function Attrs: mustprogress uwtable
define void @_Z11do_fit_ndimiiPfPA3_KfPA3_f(i32 noundef %0, i32 noundef %1, ptr nocapture noundef readonly %2, ptr nocapture noundef readonly %3, ptr nocapture noundef %4) local_unnamed_addr #3 {
  %6 = alloca [3 x [3 x float]], align 16
  %7 = alloca [3 x float], align 4
  call void @_Z10calc_fit_RiiPKfPA3_S_PA3_fS4_(i32 noundef %0, i32 noundef %1, ptr noundef %2, ptr noundef %3, ptr noundef %4, ptr noundef nonnull %6)
  %8 = icmp sgt i32 %1, 0
  br i1 %8, label %.preheader29.preheader, label %._crit_edge

.preheader29.preheader:                           ; preds = %5
  %wide.trip.count = zext nneg i32 %1 to i64
  br label %.preheader29

.preheader29:                                     ; preds = %.preheader29.preheader, %20
  %indvar = phi i64 [ 0, %.preheader29.preheader ], [ %indvar.next, %20 ]
  %9 = mul nuw nsw i64 %indvar, 12
  %scevgep = getelementptr i8, ptr %4, i64 %9
  call void @llvm.memcpy.p0.p0.i64(ptr noundef nonnull align 4 dereferenceable(12) %7, ptr noundef nonnull align 4 dereferenceable(12) %scevgep, i64 12, i1 false)
  br label %10

10:                                               ; preds = %.preheader29, %19
  %indvars.iv37 = phi i64 [ 0, %.preheader29 ], [ %indvars.iv.next38, %19 ]
  %11 = getelementptr inbounds [3 x float], ptr %4, i64 %indvar, i64 %indvars.iv37
  br label %12

12:                                               ; preds = %10, %12
  %indvars.iv = phi i64 [ 0, %10 ], [ %indvars.iv.next, %12 ]
  %13 = phi float [ 0.000000e+00, %10 ], [ %18, %12 ]
  %14 = getelementptr inbounds [3 x [3 x float]], ptr %6, i64 0, i64 %indvars.iv37, i64 %indvars.iv
  %15 = load float, ptr %14, align 4
  %16 = getelementptr inbounds [3 x float], ptr %7, i64 0, i64 %indvars.iv
  %17 = load float, ptr %16, align 4
  %18 = tail call float @llvm.fmuladd.f32(float %15, float %17, float %13)
  %indvars.iv.next = add nuw nsw i64 %indvars.iv, 1
  %exitcond.not = icmp eq i64 %indvars.iv.next, 3
  br i1 %exitcond.not, label %19, label %12, !llvm.loop !24

19:                                               ; preds = %12
  store float %18, ptr %11, align 4
  %indvars.iv.next38 = add nuw nsw i64 %indvars.iv37, 1
  %exitcond40.not = icmp eq i64 %indvars.iv.next38, 3
  br i1 %exitcond40.not, label %20, label %10, !llvm.loop !25

20:                                               ; preds = %19
  %indvar.next = add nuw nsw i64 %indvar, 1
  %exitcond42.not = icmp eq i64 %indvar.next, %wide.trip.count
  br i1 %exitcond42.not, label %._crit_edge, label %.preheader29, !llvm.loop !26

._crit_edge:                                      ; preds = %20, %5
  ret void
}